; Function Attrs: mustprogress uwtable
define hidden void @_ZN4ncnn19Convolution_x86_fmaC2Ev(ptr noundef nonnull align 8 dereferenceable(1168) %0) unnamed_addr #2 align 2 personality ptr @__gxx_personality_v0 {
  tail call void @_ZN4ncnn11ConvolutionC2Ev(ptr noundef nonnull align 8 dereferenceable(712) %0)
  store ptr getelementptr inbounds nuw inrange(-16, 80) (i8, ptr @_ZTVN4ncnn19Convolution_x86_fmaE, i64 16), ptr %0, align 8, !tbaa !4
  %2 = getelementptr inbounds nuw i8, ptr %0, i64 728
  %3 = getelementptr inbounds nuw i8, ptr %0, i64 760
  %4 = getelementptr inbounds nuw i8, ptr %0, i64 792
  %5 = getelementptr inbounds nuw i8, ptr %0, i64 832
  %6 = getelementptr inbounds nuw i8, ptr %0, i64 864
  %7 = getelementptr inbounds nuw i8, ptr %0, i64 904
  %8 = getelementptr inbounds nuw i8, ptr %0, i64 936
  %9 = getelementptr inbounds nuw i8, ptr %0, i64 976
  %10 = getelementptr inbounds nuw i8, ptr %0, i64 1008
  %11 = getelementptr inbounds nuw i8, ptr %0, i64 1048
  %12 = getelementptr inbounds nuw i8, ptr %0, i64 1080
  store i64 0, ptr %12, align 8, !tbaa !17
  %13 = getelementptr inbounds nuw i8, ptr %0, i64 1096
  %14 = getelementptr inbounds nuw i8, ptr %0, i64 1128
  %15 = getelementptr inbounds nuw i8, ptr %0, i64 1160
  store i64 0, ptr %15, align 8, !tbaa !17
  %16 = getelementptr inbounds nuw i8, ptr %0, i64 11
  tail call void @llvm.memset.p0.i64(ptr noundef nonnull align 8 dereferenceable(28) %2, i8 0, i64 28, i1 false)
  tail call void @llvm.memset.p0.i64(ptr noundef nonnull align 8 dereferenceable(28) %3, i8 0, i64 28, i1 false)
  tail call void @llvm.memset.p0.i64(ptr noundef nonnull align 8 dereferenceable(36) %4, i8 0, i64 36, i1 false)
  tail call void @llvm.memset.p0.i64(ptr noundef nonnull align 8 dereferenceable(28) %5, i8 0, i64 28, i1 false)
  tail call void @llvm.memset.p0.i64(ptr noundef nonnull align 8 dereferenceable(36) %6, i8 0, i64 36, i1 false)
  tail call void @llvm.memset.p0.i64(ptr noundef nonnull align 8 dereferenceable(28) %7, i8 0, i64 28, i1 false)
  tail call void @llvm.memset.p0.i64(ptr noundef nonnull align 8 dereferenceable(36) %8, i8 0, i64 36, i1 false)
  tail call void @llvm.memset.p0.i64(ptr noundef nonnull align 8 dereferenceable(28) %9, i8 0, i64 28, i1 false)
  tail call void @llvm.memset.p0.i64(ptr noundef nonnull align 8 dereferenceable(36) %10, i8 0, i64 36, i1 false)
  tail call void @llvm.memset.p0.i64(ptr noundef nonnull align 8 dereferenceable(28) %11, i8 0, i64 28, i1 false)
  tail call void @llvm.memset.p0.i64(ptr noundef nonnull align 8 dereferenceable(28) %13, i8 0, i64 28, i1 false)
  tail call void @llvm.memset.p0.i64(ptr noundef nonnull align 8 dereferenceable(28) %14, i8 0, i64 28, i1 false)
  store i8 1, ptr %16, align 1, !tbaa !130
  %17 = getelementptr inbounds nuw i8, ptr %0, i64 712
  store ptr null, ptr %17, align 8, !tbaa !37
  %18 = getelementptr inbounds nuw i8, ptr %0, i64 720
  store i32 0, ptr %18, align 8, !tbaa !42
  %19 = getelementptr inbounds nuw i8, ptr %0, i64 1088
  store ptr null, ptr %19, align 8, !tbaa !52
  ret void
}